target datalayout = "e-m:e-p270:32:32-p271:32:32-p272:64:64-i64:64-i128:128-f80:128-n8:16:32:64-S128"
target triple = "x86_64-pc-linux-gnu"

@_ZN6icu_775UTS46C1EjR10UErrorCode = unnamed_addr alias void (ptr, i32, ptr), ptr @_ZN6icu_775UTS46C2EjR10UErrorCode

; Function Attrs: inlinehint mustprogress nounwind uwtable
define internal noundef signext i8 @_ZL9U_FAILURE10UErrorCode(i32 noundef %0) #2 {
  %2 = alloca i32, align 4
  store i32 %0, ptr %2, align 4, !tbaa !15
  %3 = load i32, ptr %2, align 4, !tbaa !15
  %4 = icmp sgt i32 %3, 0
  %5 = zext i1 %4 to i8
  ret i8 %5
}

; Function Attrs: inlinehint mustprogress nounwind uwtable
define internal noundef signext i8 @_ZL9U_SUCCESS10UErrorCode(i32 noundef %0) #2 {
  %2 = alloca i32, align 4
  store i32 %0, ptr %2, align 4, !tbaa !15
  %3 = load i32, ptr %2, align 4, !tbaa !15
  %4 = icmp sle i32 %3, 0
  %5 = zext i1 %4 to i8
  ret i8 %5
}

; Function Attrs: mustprogress uwtable
define noundef ptr @_ZN6icu_774IDNA19createUTS46InstanceEjR10UErrorCode(i32 noundef %0, ptr noundef nonnull align 4 dereferenceable(4) %1) #1 align 2 personality ptr @__gxx_personality_v0 {
  %3 = alloca ptr, align 8
  %4 = alloca i32, align 4
  %5 = alloca ptr, align 8
  %6 = alloca ptr, align 8
  %7 = alloca ptr, align 8
  %8 = alloca i1, align 1
  %9 = alloca ptr, align 8
  %10 = alloca i32, align 4
  store i32 %0, ptr %4, align 4, !tbaa !14
  store ptr %1, ptr %5, align 8, !tbaa !22
  %11 = load ptr, ptr %5, align 8, !tbaa !22
  %12 = load i32, ptr %11, align 4, !tbaa !15
  %13 = call noundef signext i8 @_ZL9U_SUCCESS10UErrorCode(i32 noundef %12)
  %14 = icmp ne i8 %13, 0
  br i1 %14, label %15, label %52

15:                                               ; preds = %2
  call void @llvm.lifetime.start.p0(i64 8, ptr %6) #13
  %16 = call noundef ptr @_ZN6icu_777UMemorynwEm(i64 noundef 24) #13
  %17 = icmp eq ptr %16, null
  store i1 false, ptr %8, align 1
  br i1 %17, label %22, label %18

18:                                               ; preds = %15
  store ptr %16, ptr %7, align 8
  store i1 true, ptr %8, align 1
  %19 = load i32, ptr %4, align 4, !tbaa !14
  %20 = load ptr, ptr %5, align 8, !tbaa !22
  invoke void @_ZN6icu_775UTS46C1EjR10UErrorCode(ptr noundef nonnull align 8 dereferenceable(20) %16, i32 noundef %19, ptr noundef nonnull align 4 dereferenceable(4) %20)
          to label %21 unwind label %28

21:                                               ; preds = %18
  br label %22

22:                                               ; preds = %21, %15
  %23 = phi ptr [ %16, %21 ], [ null, %15 ]
  store ptr %23, ptr %6, align 8, !tbaa !23
  %24 = load ptr, ptr %6, align 8, !tbaa !23
  %25 = icmp eq ptr %24, null
  br i1 %25, label %26, label %36

26:                                               ; preds = %22
  %27 = load ptr, ptr %5, align 8, !tbaa !22
  store i32 7, ptr %27, align 4, !tbaa !15
  br label %50

28:                                               ; preds = %18
  %29 = landingpad { ptr, i32 }
          cleanup
  %30 = extractvalue { ptr, i32 } %29, 0
  store ptr %30, ptr %9, align 8
  %31 = extractvalue { ptr, i32 } %29, 1
  store i32 %31, ptr %10, align 4
  %32 = load i1, ptr %8, align 1
  br i1 %32, label %33, label %35

33:                                               ; preds = %28
  %34 = load ptr, ptr %7, align 8
  call void @_ZN6icu_777UMemorydlEPv(ptr noundef %34) #13
  br label %35

35:                                               ; preds = %33, %28
  call void @llvm.lifetime.end.p0(i64 8, ptr %6) #13
  br label %55

36:                                               ; preds = %22
  %37 = load ptr, ptr %5, align 8, !tbaa !22
  %38 = load i32, ptr %37, align 4, !tbaa !15
  %39 = call noundef signext i8 @_ZL9U_FAILURE10UErrorCode(i32 noundef %38)
  %40 = icmp ne i8 %39, 0
  br i1 %40, label %41, label %49

41:                                               ; preds = %36
  %42 = load ptr, ptr %6, align 8, !tbaa !23
  %43 = icmp eq ptr %42, null
  br i1 %43, label %48, label %44

44:                                               ; preds = %41
  %45 = load ptr, ptr %42, align 8, !tbaa !29
  %46 = getelementptr inbounds ptr, ptr %45, i64 1
  %47 = load ptr, ptr %46, align 8
  call void %47(ptr noundef nonnull align 8 dereferenceable(8) %42) #13
  br label %48

48:                                               ; preds = %44, %41
  store ptr null, ptr %6, align 8, !tbaa !23
  br label %49

49:                                               ; preds = %48, %36
  br label %50

50:                                               ; preds = %49, %26
  %51 = load ptr, ptr %6, align 8, !tbaa !23
  store ptr %51, ptr %3, align 8
  call void @llvm.lifetime.end.p0(i64 8, ptr %6) #13
  br label %53

52:                                               ; preds = %2
  store ptr null, ptr %3, align 8
  br label %53

53:                                               ; preds = %52, %50
  %54 = load ptr, ptr %3, align 8
  ret ptr %54

55:                                               ; preds = %35
  %56 = load ptr, ptr %9, align 8
  %57 = load i32, ptr %10, align 4
  %58 = insertvalue { ptr, i32 } poison, ptr %56, 0
  %59 = insertvalue { ptr, i32 } %58, i32 %57, 1
  resume { ptr, i32 } %59
}